target datalayout = "e-m:e-p270:32:32-p271:32:32-p272:64:64-i64:64-i128:128-f80:128-n8:16:32:64-S128"
target triple = "x86_64-unknown-linux-gnu"

%struct.ESPState = type { %struct.DeviceState, [16 x i8], [16 x i8], ptr, ptr, i8, i8, i32, i32, i32, %struct.Fifo8, %struct.SCSIBus, ptr, ptr, %struct.Fifo8, i8, i8, i32, i8, i8, i32, i32, ptr, ptr, ptr, ptr, ptr, i8, i8, i32, i32, i8, i32, i32, [16 x i8], [32 x i8], i32 }
%struct.DeviceState = type { %struct.Object, ptr, ptr, i8, i8, i64, ptr, i32, i8, ptr, %struct.NamedGPIOListHead, %struct.NamedClockListHead, %struct.BusStateHead, i32, i32, i32, %struct.ResettableState, ptr, %struct.MemReentrancyGuard }
%struct.Object = type { ptr, ptr, ptr, i32, ptr }
%struct.NamedGPIOListHead = type { ptr }
%struct.NamedClockListHead = type { ptr }
%struct.BusStateHead = type { ptr }
%struct.ResettableState = type { i32, i8, i8 }
%struct.MemReentrancyGuard = type { i8 }
%struct.SCSIBus = type { %struct.BusState, i32, %struct.SCSISense, ptr, i32 }
%struct.BusState = type { %struct.Object, ptr, ptr, ptr, i32, i8, i8, i32, %union.BusChildHead, %struct.BusStateEntry, %struct.ResettableState }
%union.BusChildHead = type { %struct.QTailQLink }
%struct.QTailQLink = type { ptr, ptr }
%struct.BusStateEntry = type { ptr, ptr }
%struct.SCSISense = type { i8, i8, i8 }
%struct.Fifo8 = type { ptr, i32, i32, i32 }
%struct.timeval = type { i64, i64 }

@trace_events_enabled_count = external global i32, align 4
@_TRACE_ESP_DMA_ENABLE_DSTATE = external global i16, align 2
@message_with_timestamp = external global i8, align 1
@.str.25 = private unnamed_addr constant [42 x i8] c"%d@%zu.%06zu:esp_dma_enable Raise enable\0A\00", align 1
@.str.26 = private unnamed_addr constant [29 x i8] c"esp_dma_enable Raise enable\0A\00", align 1
@_TRACE_ESP_DMA_DISABLE_DSTATE = external global i16, align 2
@.str.27 = private unnamed_addr constant [43 x i8] c"%d@%zu.%06zu:esp_dma_disable Lower enable\0A\00", align 1
@.str.28 = private unnamed_addr constant [30 x i8] c"esp_dma_disable Lower enable\0A\00", align 1
@qemu_loglevel = external global i32, align 4

; Function Attrs: nounwind sspstrong uwtable
define internal zeroext i1 @qemu_loglevel_mask(i32 noundef %mask) #0 {
entry:
  %mask.addr = alloca i32, align 4
  store i32 %mask, ptr %mask.addr, align 4
  %0 = load i32, ptr @qemu_loglevel, align 4
  %1 = load i32, ptr %mask.addr, align 4
  %and = and i32 %0, %1
  %cmp = icmp ne i32 %and, 0
  ret i1 %cmp
}

; Function Attrs: nounwind sspstrong uwtable
define internal void @_nocheck__trace_esp_dma_disable() #0 {
entry:
  %_now = alloca %struct.timeval, align 8
  %0 = load i32, ptr @trace_events_enabled_count, align 4
  %tobool = icmp ne i32 %0, 0
  %lnot = xor i1 %tobool, true
  %lnot1 = xor i1 %lnot, true
  %lnot.ext = zext i1 %lnot1 to i32
  %conv = sext i32 %lnot.ext to i64
  %tobool2 = icmp ne i64 %conv, 0
  br i1 %tobool2, label %land.lhs.true, label %if.end11

land.lhs.true:                                    ; preds = %entry
  %1 = load i16, ptr @_TRACE_ESP_DMA_DISABLE_DSTATE, align 2
  %conv3 = zext i16 %1 to i32
  %tobool4 = icmp ne i32 %conv3, 0
  br i1 %tobool4, label %land.lhs.true5, label %if.end11

land.lhs.true5:                                   ; preds = %land.lhs.true
  %call = call zeroext i1 @qemu_loglevel_mask(i32 noundef 32768)
  br i1 %call, label %if.then, label %if.end11

if.then:                                          ; preds = %land.lhs.true5
  %2 = load i8, ptr @message_with_timestamp, align 1
  %tobool7 = trunc i8 %2 to i1
  br i1 %tobool7, label %if.then8, label %if.else

if.then8:                                         ; preds = %if.then
  %call9 = call i32 @gettimeofday(ptr noundef %_now, ptr noundef null) #8
  %call10 = call i32 @qemu_get_thread_id()
  %tv_sec = getelementptr inbounds %struct.timeval, ptr %_now, i32 0, i32 0
  %3 = load i64, ptr %tv_sec, align 8
  %tv_usec = getelementptr inbounds %struct.timeval, ptr %_now, i32 0, i32 1
  %4 = load i64, ptr %tv_usec, align 8
  call void (ptr, ...) @qemu_log(ptr noundef @.str.27, i32 noundef %call10, i64 noundef %3, i64 noundef %4)
  br label %if.end

if.else:                                          ; preds = %if.then
  call void (ptr, ...) @qemu_log(ptr noundef @.str.28)
  br label %if.end

if.end:                                           ; preds = %if.else, %if.then8
  br label %if.end11

if.end11:                                         ; preds = %if.end, %land.lhs.true5, %land.lhs.true, %entry
  ret void
}

; Function Attrs: nounwind sspstrong uwtable
define internal void @_nocheck__trace_esp_dma_enable() #0 {
entry:
  %_now = alloca %struct.timeval, align 8
  %0 = load i32, ptr @trace_events_enabled_count, align 4
  %tobool = icmp ne i32 %0, 0
  %lnot = xor i1 %tobool, true
  %lnot1 = xor i1 %lnot, true
  %lnot.ext = zext i1 %lnot1 to i32
  %conv = sext i32 %lnot.ext to i64
  %tobool2 = icmp ne i64 %conv, 0
  br i1 %tobool2, label %land.lhs.true, label %if.end11

land.lhs.true:                                    ; preds = %entry
  %1 = load i16, ptr @_TRACE_ESP_DMA_ENABLE_DSTATE, align 2
  %conv3 = zext i16 %1 to i32
  %tobool4 = icmp ne i32 %conv3, 0
  br i1 %tobool4, label %land.lhs.true5, label %if.end11

land.lhs.true5:                                   ; preds = %land.lhs.true
  %call = call zeroext i1 @qemu_loglevel_mask(i32 noundef 32768)
  br i1 %call, label %if.then, label %if.end11

if.then:                                          ; preds = %land.lhs.true5
  %2 = load i8, ptr @message_with_timestamp, align 1
  %tobool7 = trunc i8 %2 to i1
  br i1 %tobool7, label %if.then8, label %if.else

if.then8:                                         ; preds = %if.then
  %call9 = call i32 @gettimeofday(ptr noundef %_now, ptr noundef null) #8
  %call10 = call i32 @qemu_get_thread_id()
  %tv_sec = getelementptr inbounds %struct.timeval, ptr %_now, i32 0, i32 0
  %3 = load i64, ptr %tv_sec, align 8
  %tv_usec = getelementptr inbounds %struct.timeval, ptr %_now, i32 0, i32 1
  %4 = load i64, ptr %tv_usec, align 8
  call void (ptr, ...) @qemu_log(ptr noundef @.str.25, i32 noundef %call10, i64 noundef %3, i64 noundef %4)
  br label %if.end

if.else:                                          ; preds = %if.then
  call void (ptr, ...) @qemu_log(ptr noundef @.str.26)
  br label %if.end

if.end:                                           ; preds = %if.else, %if.then8
  br label %if.end11

if.end11:                                         ; preds = %if.end, %land.lhs.true5, %land.lhs.true, %entry
  ret void
}

; Function Attrs: nounwind sspstrong uwtable
define internal void @trace_esp_dma_disable() #0 {
entry:
  call void @_nocheck__trace_esp_dma_disable()
  ret void
}

; Function Attrs: nounwind sspstrong uwtable
define internal void @trace_esp_dma_enable() #0 {
entry:
  call void @_nocheck__trace_esp_dma_enable()
  ret void
}

; Function Attrs: nounwind sspstrong uwtable
define dso_local void @esp_dma_enable(ptr noundef %s, i32 noundef %irq, i32 noundef %level) #0 {
entry:
  %s.addr = alloca ptr, align 8
  %irq.addr = alloca i32, align 4
  %level.addr = alloca i32, align 4
  store ptr %s, ptr %s.addr, align 8
  store i32 %irq, ptr %irq.addr, align 4
  store i32 %level, ptr %level.addr, align 4
  %0 = load i32, ptr %level.addr, align 4
  %tobool = icmp ne i32 %0, 0
  br i1 %tobool, label %if.then, label %if.else

if.then:                                          ; preds = %entry
  %1 = load ptr, ptr %s.addr, align 8
  %dma_enabled = getelementptr inbounds %struct.ESPState, ptr %1, i32 0, i32 20
  store i32 1, ptr %dma_enabled, align 4
  call void @trace_esp_dma_enable()
  %2 = load ptr, ptr %s.addr, align 8
  %dma_cb = getelementptr inbounds %struct.ESPState, ptr %2, i32 0, i32 26
  %3 = load ptr, ptr %dma_cb, align 8
  %tobool1 = icmp ne ptr %3, null
  br i1 %tobool1, label %if.then2, label %if.end

if.then2:                                         ; preds = %if.then
  %4 = load ptr, ptr %s.addr, align 8
  %dma_cb3 = getelementptr inbounds %struct.ESPState, ptr %4, i32 0, i32 26
  %5 = load ptr, ptr %dma_cb3, align 8
  %6 = load ptr, ptr %s.addr, align 8
  call void %5(ptr noundef %6)
  %7 = load ptr, ptr %s.addr, align 8
  %dma_cb4 = getelementptr inbounds %struct.ESPState, ptr %7, i32 0, i32 26
  store ptr null, ptr %dma_cb4, align 8
  br label %if.end

if.end:                                           ; preds = %if.then2, %if.then
  br label %if.end6

if.else:                                          ; preds = %entry
  call void @trace_esp_dma_disable()
  %8 = load ptr, ptr %s.addr, align 8
  %dma_enabled5 = getelementptr inbounds %struct.ESPState, ptr %8, i32 0, i32 20
  store i32 0, ptr %dma_enabled5, align 4
  br label %if.end6

if.end6:                                          ; preds = %if.else, %if.end
  ret void
}