; Function Attrs: nounwind sspstrong uwtable
define dso_local void @esp_dma_enable(ptr noundef initializes((444, 448)) %s, i32 %irq, i32 noundef %level) local_unnamed_addr #0 {
entry:
  %_now.i.i6 = alloca %struct.timeval, align 8
  %_now.i.i = alloca %struct.timeval, align 8
  %tobool.not = icmp eq i32 %level, 0
  br i1 %tobool.not, label %if.else, label %if.then

if.then:                                          ; preds = %entry
  %dma_enabled = getelementptr inbounds nuw i8, ptr %s, i64 444
  store i32 1, ptr %dma_enabled, align 4
  call void @llvm.lifetime.start.p0(i64 16, ptr nonnull %_now.i.i)
  %0 = load i32, ptr @trace_events_enabled_count, align 4
  %tobool.i.i = icmp ne i32 %0, 0
  %1 = load i16, ptr @_TRACE_ESP_DMA_ENABLE_DSTATE, align 2
  %tobool4.i.i = icmp ne i16 %1, 0
  %or.cond.i.i = select i1 %tobool.i.i, i1 %tobool4.i.i, i1 false
  br i1 %or.cond.i.i, label %land.lhs.true5.i.i, label %trace_esp_dma_enable.exit

land.lhs.true5.i.i:                               ; preds = %if.then
  %2 = load i32, ptr @qemu_loglevel, align 4
  %and.i.i.i = and i32 %2, 32768
  %cmp.i.not.i.i = icmp eq i32 %and.i.i.i, 0
  br i1 %cmp.i.not.i.i, label %trace_esp_dma_enable.exit, label %if.then.i.i

if.then.i.i:                                      ; preds = %land.lhs.true5.i.i
  %3 = load i8, ptr @message_with_timestamp, align 1
  %tobool7.i.i = trunc i8 %3 to i1
  br i1 %tobool7.i.i, label %if.then8.i.i, label %if.else.i.i

if.then8.i.i:                                     ; preds = %if.then.i.i
  %call9.i.i = call i32 @gettimeofday(ptr noundef nonnull %_now.i.i, ptr noundef null) #10
  %call10.i.i = tail call i32 @qemu_get_thread_id() #10
  %4 = load i64, ptr %_now.i.i, align 8
  %tv_usec.i.i = getelementptr inbounds nuw i8, ptr %_now.i.i, i64 8
  %5 = load i64, ptr %tv_usec.i.i, align 8
  tail call void (ptr, ...) @qemu_log(ptr noundef nonnull @.str.25, i32 noundef %call10.i.i, i64 noundef %4, i64 noundef %5) #10
  br label %trace_esp_dma_enable.exit

if.else.i.i:                                      ; preds = %if.then.i.i
  tail call void (ptr, ...) @qemu_log(ptr noundef nonnull @.str.26) #10
  br label %trace_esp_dma_enable.exit

trace_esp_dma_enable.exit:                        ; preds = %if.then, %land.lhs.true5.i.i, %if.then8.i.i, %if.else.i.i
  call void @llvm.lifetime.end.p0(i64 16, ptr nonnull %_now.i.i)
  %dma_cb = getelementptr inbounds nuw i8, ptr %s, i64 488
  %6 = load ptr, ptr %dma_cb, align 8
  %tobool1.not = icmp eq ptr %6, null
  br i1 %tobool1.not, label %if.end6, label %if.then2

if.then2:                                         ; preds = %trace_esp_dma_enable.exit
  tail call void %6(ptr noundef nonnull %s) #10
  store ptr null, ptr %dma_cb, align 8
  br label %if.end6

if.else:                                          ; preds = %entry
  call void @llvm.lifetime.start.p0(i64 16, ptr nonnull %_now.i.i6)
  %7 = load i32, ptr @trace_events_enabled_count, align 4
  %tobool.i.i7 = icmp ne i32 %7, 0
  %8 = load i16, ptr @_TRACE_ESP_DMA_DISABLE_DSTATE, align 2
  %tobool4.i.i8 = icmp ne i16 %8, 0
  %or.cond.i.i9 = select i1 %tobool.i.i7, i1 %tobool4.i.i8, i1 false
  br i1 %or.cond.i.i9, label %land.lhs.true5.i.i10, label %trace_esp_dma_disable.exit

land.lhs.true5.i.i10:                             ; preds = %if.else
  %9 = load i32, ptr @qemu_loglevel, align 4
  %and.i.i.i11 = and i32 %9, 32768
  %cmp.i.not.i.i12 = icmp eq i32 %and.i.i.i11, 0
  br i1 %cmp.i.not.i.i12, label %trace_esp_dma_disable.exit, label %if.then.i.i13

if.then.i.i13:                                    ; preds = %land.lhs.true5.i.i10
  %10 = load i8, ptr @message_with_timestamp, align 1
  %tobool7.i.i14 = trunc i8 %10 to i1
  br i1 %tobool7.i.i14, label %if.then8.i.i16, label %if.else.i.i15

if.then8.i.i16:                                   ; preds = %if.then.i.i13
  %call9.i.i17 = call i32 @gettimeofday(ptr noundef nonnull %_now.i.i6, ptr noundef null) #10
  %call10.i.i18 = tail call i32 @qemu_get_thread_id() #10
  %11 = load i64, ptr %_now.i.i6, align 8
  %tv_usec.i.i19 = getelementptr inbounds nuw i8, ptr %_now.i.i6, i64 8
  %12 = load i64, ptr %tv_usec.i.i19, align 8
  tail call void (ptr, ...) @qemu_log(ptr noundef nonnull @.str.27, i32 noundef %call10.i.i18, i64 noundef %11, i64 noundef %12) #10
  br label %trace_esp_dma_disable.exit

if.else.i.i15:                                    ; preds = %if.then.i.i13
  tail call void (ptr, ...) @qemu_log(ptr noundef nonnull @.str.28) #10
  br label %trace_esp_dma_disable.exit

trace_esp_dma_disable.exit:                       ; preds = %if.else, %land.lhs.true5.i.i10, %if.then8.i.i16, %if.else.i.i15
  call void @llvm.lifetime.end.p0(i64 16, ptr nonnull %_now.i.i6)
  %dma_enabled5 = getelementptr inbounds nuw i8, ptr %s, i64 444
  store i32 0, ptr %dma_enabled5, align 4
  br label %if.end6

if.end6:                                          ; preds = %trace_esp_dma_enable.exit, %if.then2, %trace_esp_dma_disable.exit
  ret void
}